target datalayout = "e-m:e-p270:32:32-p271:32:32-p272:64:64-i64:64-i128:128-f80:128-n8:16:32:64-S128"
target triple = "x86_64-pc-linux-gnu"

%struct.poly_st = type { [256 x i32] }

; Function Attrs: nounwind uwtable
define internal i32 @poly_encode_6_bits(ptr noundef %0, ptr noundef %1) #0 {
  %3 = alloca i32, align 4
  %4 = alloca ptr, align 8
  %5 = alloca ptr, align 8
  %6 = alloca ptr, align 8
  %7 = alloca ptr, align 8
  %8 = alloca ptr, align 8
  %9 = alloca i32, align 4
  %10 = alloca i32, align 4
  %11 = alloca i32, align 4
  %12 = alloca i32, align 4
  %13 = alloca i32, align 4
  store ptr %0, ptr %4, align 8, !tbaa !20
  store ptr %1, ptr %5, align 8, !tbaa !29
  call void @llvm.lifetime.start.p0(i64 8, ptr %6) #7
  call void @llvm.lifetime.start.p0(i64 8, ptr %7) #7
  %14 = load ptr, ptr %4, align 8, !tbaa !20
  %15 = getelementptr inbounds nuw %struct.poly_st, ptr %14, i32 0, i32 0
  %16 = getelementptr inbounds [256 x i32], ptr %15, i64 0, i64 0
  store ptr %16, ptr %7, align 8, !tbaa !31
  call void @llvm.lifetime.start.p0(i64 8, ptr %8) #7
  %17 = load ptr, ptr %7, align 8, !tbaa !31
  %18 = getelementptr inbounds i32, ptr %17, i64 256
  store ptr %18, ptr %8, align 8, !tbaa !31
  %19 = load ptr, ptr %5, align 8, !tbaa !29
  %20 = call i32 @WPACKET_allocate_bytes(ptr noundef %19, i64 noundef 192, ptr noundef %6)
  %21 = icmp ne i32 %20, 0
  br i1 %21, label %23, label %22

22:                                               ; preds = %2
  store i32 0, ptr %3, align 4
  store i32 1, ptr %9, align 4
  br label %65

23:                                               ; preds = %2
  br label %24

24:                                               ; preds = %60, %23
  call void @llvm.lifetime.start.p0(i64 4, ptr %10) #7
  %25 = load ptr, ptr %7, align 8, !tbaa !31
  %26 = getelementptr inbounds nuw i32, ptr %25, i32 1
  store ptr %26, ptr %7, align 8, !tbaa !31
  %27 = load i32, ptr %25, align 4, !tbaa !8
  store i32 %27, ptr %10, align 4, !tbaa !8
  call void @llvm.lifetime.start.p0(i64 4, ptr %11) #7
  %28 = load ptr, ptr %7, align 8, !tbaa !31
  %29 = getelementptr inbounds nuw i32, ptr %28, i32 1
  store ptr %29, ptr %7, align 8, !tbaa !31
  %30 = load i32, ptr %28, align 4, !tbaa !8
  store i32 %30, ptr %11, align 4, !tbaa !8
  call void @llvm.lifetime.start.p0(i64 4, ptr %12) #7
  %31 = load ptr, ptr %7, align 8, !tbaa !31
  %32 = getelementptr inbounds nuw i32, ptr %31, i32 1
  store ptr %32, ptr %7, align 8, !tbaa !31
  %33 = load i32, ptr %31, align 4, !tbaa !8
  store i32 %33, ptr %12, align 4, !tbaa !8
  call void @llvm.lifetime.start.p0(i64 4, ptr %13) #7
  %34 = load ptr, ptr %7, align 8, !tbaa !31
  %35 = getelementptr inbounds nuw i32, ptr %34, i32 1
  store ptr %35, ptr %7, align 8, !tbaa !31
  %36 = load i32, ptr %34, align 4, !tbaa !8
  store i32 %36, ptr %13, align 4, !tbaa !8
  %37 = load i32, ptr %10, align 4, !tbaa !8
  %38 = load i32, ptr %11, align 4, !tbaa !8
  %39 = shl i32 %38, 6
  %40 = or i32 %37, %39
  %41 = trunc i32 %40 to i8
  %42 = load ptr, ptr %6, align 8, !tbaa !25
  %43 = getelementptr inbounds nuw i8, ptr %42, i32 1
  store ptr %43, ptr %6, align 8, !tbaa !25
  store i8 %41, ptr %42, align 1, !tbaa !33
  %44 = load i32, ptr %11, align 4, !tbaa !8
  %45 = lshr i32 %44, 2
  %46 = load i32, ptr %12, align 4, !tbaa !8
  %47 = shl i32 %46, 4
  %48 = or i32 %45, %47
  %49 = trunc i32 %48 to i8
  %50 = load ptr, ptr %6, align 8, !tbaa !25
  %51 = getelementptr inbounds nuw i8, ptr %50, i32 1
  store ptr %51, ptr %6, align 8, !tbaa !25
  store i8 %49, ptr %50, align 1, !tbaa !33
  %52 = load i32, ptr %12, align 4, !tbaa !8
  %53 = lshr i32 %52, 4
  %54 = load i32, ptr %13, align 4, !tbaa !8
  %55 = shl i32 %54, 2
  %56 = or i32 %53, %55
  %57 = trunc i32 %56 to i8
  %58 = load ptr, ptr %6, align 8, !tbaa !25
  %59 = getelementptr inbounds nuw i8, ptr %58, i32 1
  store ptr %59, ptr %6, align 8, !tbaa !25
  store i8 %57, ptr %58, align 1, !tbaa !33
  call void @llvm.lifetime.end.p0(i64 4, ptr %13) #7
  call void @llvm.lifetime.end.p0(i64 4, ptr %12) #7
  call void @llvm.lifetime.end.p0(i64 4, ptr %11) #7
  call void @llvm.lifetime.end.p0(i64 4, ptr %10) #7
  br label %60

60:                                               ; preds = %24
  %61 = load ptr, ptr %7, align 8, !tbaa !31
  %62 = load ptr, ptr %8, align 8, !tbaa !31
  %63 = icmp ult ptr %61, %62
  br i1 %63, label %24, label %64, !llvm.loop !96

64:                                               ; preds = %60
  store i32 1, ptr %3, align 4
  store i32 1, ptr %9, align 4
  br label %65

65:                                               ; preds = %64, %22
  call void @llvm.lifetime.end.p0(i64 8, ptr %8) #7
  call void @llvm.lifetime.end.p0(i64 8, ptr %7) #7
  call void @llvm.lifetime.end.p0(i64 8, ptr %6) #7
  %66 = load i32, ptr %3, align 4
  ret i32 %66
}