; Function Attrs: nounwind uwtable
define internal range(i32 0, 2) i32 @poly_encode_6_bits(ptr noundef readonly captures(none) %0, ptr noundef %1) unnamed_addr #0 {
  %3 = alloca ptr, align 8
  call void @llvm.lifetime.start.p0(i64 8, ptr nonnull %3) #9
  %4 = call i32 @WPACKET_allocate_bytes(ptr noundef %1, i64 noundef 192, ptr noundef nonnull %3) #9
  %.not = icmp eq i32 %4, 0
  br i1 %.not, label %.loopexit, label %.preheader

.preheader:                                       ; preds = %2, %.preheader
  %.015.idx = phi i64 [ %.015.add, %.preheader ], [ 0, %2 ]
  %.015.ptr = getelementptr inbounds nuw i8, ptr %0, i64 %.015.idx
  %5 = getelementptr inbounds nuw i8, ptr %.015.ptr, i64 4
  %6 = load i32, ptr %.015.ptr, align 4, !tbaa !21
  %7 = getelementptr inbounds nuw i8, ptr %.015.ptr, i64 8
  %8 = load i32, ptr %5, align 4, !tbaa !21
  %9 = getelementptr inbounds nuw i8, ptr %.015.ptr, i64 12
  %10 = load i32, ptr %7, align 4, !tbaa !21
  %.015.add = add nuw nsw i64 %.015.idx, 16
  %11 = load i32, ptr %9, align 4, !tbaa !21
  %12 = shl i32 %8, 6
  %13 = or i32 %12, %6
  %14 = trunc i32 %13 to i8
  %15 = load ptr, ptr %3, align 8, !tbaa !22
  %16 = getelementptr inbounds nuw i8, ptr %15, i64 1
  store ptr %16, ptr %3, align 8, !tbaa !22
  store i8 %14, ptr %15, align 1, !tbaa !23
  %17 = lshr i32 %8, 2
  %18 = shl i32 %10, 4
  %19 = or i32 %18, %17
  %20 = trunc i32 %19 to i8
  %21 = load ptr, ptr %3, align 8, !tbaa !22
  %22 = getelementptr inbounds nuw i8, ptr %21, i64 1
  store ptr %22, ptr %3, align 8, !tbaa !22
  store i8 %20, ptr %21, align 1, !tbaa !23
  %23 = lshr i32 %10, 4
  %24 = shl i32 %11, 2
  %25 = or i32 %24, %23
  %26 = trunc i32 %25 to i8
  %27 = load ptr, ptr %3, align 8, !tbaa !22
  %28 = getelementptr inbounds nuw i8, ptr %27, i64 1
  store ptr %28, ptr %3, align 8, !tbaa !22
  store i8 %26, ptr %27, align 1, !tbaa !23
  %29 = icmp samesign ult i64 %.015.idx, 1008
  br i1 %29, label %.preheader, label %.loopexit, !llvm.loop !84

.loopexit:                                        ; preds = %.preheader, %2
  %.0 = phi i32 [ 0, %2 ], [ 1, %.preheader ]
  call void @llvm.lifetime.end.p0(i64 8, ptr nonnull %3) #9
  ret i32 %.0
}